target datalayout = "e-m:e-p270:32:32-p271:32:32-p272:64:64-i64:64-i128:128-f80:128-n8:16:32:64-S128"
target triple = "x86_64-pc-linux-gnu"

@SDL_GPUTextureFormatTexelBlockSize_REAL.sdl_assert_data = internal global { i8, [3 x i8], i32, ptr, ptr, i32, [4 x i8], ptr, ptr } { i8 0, [3 x i8] zeroinitializer, i32 0, ptr @.str.7, ptr null, i32 0, [4 x i8] zeroinitializer, ptr null, ptr null }, align 8
@__func__.SDL_GPUTextureFormatTexelBlockSize_REAL = private unnamed_addr constant [40 x i8] c"SDL_GPUTextureFormatTexelBlockSize_REAL\00", align 1
@.str.8 = private unnamed_addr constant [103 x i8] c"generated/home/dtcxzyw/WorkSpace/Projects/compilers/llvm-opt-benchmark/bench/sdl/SDL/src/gpu/SDL_gpu.c\00", align 1

; Function Attrs: nounwind uwtable
define hidden i32 @SDL_GPUTextureFormatTexelBlockSize_REAL(i32 noundef %0) #0 {
  %2 = alloca i32, align 4
  %3 = alloca i32, align 4
  %4 = alloca i32, align 4
  %5 = alloca i32, align 4
  store i32 %0, ptr %3, align 4
  %6 = load i32, ptr %3, align 4
  switch i32 %6, label %16 [
    i32 13, label %7
    i32 54, label %7
    i32 16, label %7
    i32 14, label %8
    i32 15, label %8
    i32 17, label %8
    i32 18, label %8
    i32 19, label %8
    i32 20, label %8
    i32 55, label %8
    i32 56, label %8
    i32 57, label %8
    i32 2, label %9
    i32 21, label %9
    i32 1, label %9
    i32 34, label %9
    i32 43, label %9
    i32 9, label %10
    i32 11, label %10
    i32 10, label %10
    i32 27, label %10
    i32 22, label %10
    i32 3, label %10
    i32 35, label %10
    i32 44, label %10
    i32 5, label %10
    i32 24, label %10
    i32 37, label %10
    i32 46, label %10
    i32 58, label %10
    i32 4, label %11
    i32 12, label %11
    i32 52, label %11
    i32 53, label %11
    i32 30, label %11
    i32 28, label %11
    i32 33, label %11
    i32 23, label %11
    i32 8, label %11
    i32 36, label %11
    i32 45, label %11
    i32 38, label %11
    i32 47, label %11
    i32 6, label %11
    i32 25, label %11
    i32 59, label %11
    i32 60, label %11
    i32 40, label %11
    i32 49, label %11
    i32 61, label %11
    i32 62, label %12
    i32 29, label %13
    i32 7, label %13
    i32 26, label %13
    i32 39, label %13
    i32 48, label %13
    i32 31, label %13
    i32 41, label %13
    i32 50, label %13
    i32 32, label %14
    i32 51, label %14
    i32 42, label %14
    i32 63, label %15
    i32 64, label %15
    i32 65, label %15
    i32 66, label %15
    i32 67, label %15
    i32 68, label %15
    i32 69, label %15
    i32 70, label %15
    i32 71, label %15
    i32 72, label %15
    i32 73, label %15
    i32 74, label %15
    i32 75, label %15
    i32 76, label %15
    i32 77, label %15
    i32 78, label %15
    i32 79, label %15
    i32 80, label %15
    i32 81, label %15
    i32 82, label %15
    i32 83, label %15
    i32 84, label %15
    i32 85, label %15
    i32 86, label %15
    i32 87, label %15
    i32 88, label %15
    i32 89, label %15
    i32 90, label %15
    i32 91, label %15
    i32 92, label %15
    i32 93, label %15
    i32 94, label %15
    i32 95, label %15
    i32 96, label %15
    i32 97, label %15
    i32 98, label %15
    i32 99, label %15
    i32 100, label %15
    i32 101, label %15
    i32 102, label %15
    i32 103, label %15
    i32 104, label %15
  ]

7:                                                ; preds = %1, %1, %1
  store i32 8, ptr %2, align 4
  br label %33

8:                                                ; preds = %1, %1, %1, %1, %1, %1, %1, %1, %1
  store i32 16, ptr %2, align 4
  br label %33

9:                                                ; preds = %1, %1, %1, %1, %1
  store i32 1, ptr %2, align 4
  br label %33

10:                                               ; preds = %1, %1, %1, %1, %1, %1, %1, %1, %1, %1, %1, %1, %1
  store i32 2, ptr %2, align 4
  br label %33

11:                                               ; preds = %1, %1, %1, %1, %1, %1, %1, %1, %1, %1, %1, %1, %1, %1, %1, %1, %1, %1, %1, %1
  store i32 4, ptr %2, align 4
  br label %33

12:                                               ; preds = %1
  store i32 5, ptr %2, align 4
  br label %33

13:                                               ; preds = %1, %1, %1, %1, %1, %1, %1, %1
  store i32 8, ptr %2, align 4
  br label %33

14:                                               ; preds = %1, %1, %1
  store i32 16, ptr %2, align 4
  br label %33

15:                                               ; preds = %1, %1, %1, %1, %1, %1, %1, %1, %1, %1, %1, %1, %1, %1, %1, %1, %1, %1, %1, %1, %1, %1, %1, %1, %1, %1, %1, %1, %1, %1, %1, %1, %1, %1, %1, %1, %1, %1, %1, %1, %1, %1
  store i32 16, ptr %2, align 4
  br label %33

16:                                               ; preds = %1
  br label %17

17:                                               ; preds = %16
  br label %18

18:                                               ; preds = %17, %29
  call void @llvm.lifetime.start.p0(i64 4, ptr %4) #6
  %19 = call i32 @SDL_ReportAssertion_REAL(ptr noundef @SDL_GPUTextureFormatTexelBlockSize_REAL.sdl_assert_data, ptr noundef @__func__.SDL_GPUTextureFormatTexelBlockSize_REAL, ptr noundef @.str.8, i32 noundef 825)
  store i32 %19, ptr %4, align 4
  %20 = load i32, ptr %4, align 4
  %21 = icmp eq i32 %20, 0
  br i1 %21, label %22, label %23

22:                                               ; preds = %18
  store i32 5, ptr %5, align 4
  br label %29

23:                                               ; preds = %18
  %24 = load i32, ptr %4, align 4
  %25 = icmp eq i32 %24, 1
  br i1 %25, label %26, label %27

26:                                               ; preds = %23
  call void @llvm.debugtrap()
  br label %27

27:                                               ; preds = %26, %23
  br label %28

28:                                               ; preds = %27
  store i32 6, ptr %5, align 4
  br label %29

29:                                               ; preds = %28, %22
  call void @llvm.lifetime.end.p0(i64 4, ptr %4) #6
  %30 = load i32, ptr %5, align 4
  switch i32 %30, label %35 [
    i32 5, label %18
    i32 6, label %31
  ]

31:                                               ; preds = %29
  br label %32

32:                                               ; preds = %31
  store i32 0, ptr %2, align 4
  br label %33

33:                                               ; preds = %32, %15, %14, %13, %12, %11, %10, %9, %8, %7
  %34 = load i32, ptr %2, align 4
  ret i32 %34

35:                                               ; preds = %29
  unreachable
}